target datalayout = "e-m:e-p270:32:32-p271:32:32-p272:64:64-i64:64-i128:128-f80:128-n8:16:32:64-S128"
target triple = "x86_64-pc-linux-gnu"

%struct.EVP_AES_WRAP_CTX = type { %union.anon.6, ptr }
%union.anon.6 = type { double, [240 x i8] }

@.str = private unnamed_addr constant [30 x i8] c"../openssl/crypto/evp/e_aes.c\00", align 1
@__func__.aes_wrap_cipher = private unnamed_addr constant [16 x i8] c"aes_wrap_cipher\00", align 1

; Function Attrs: nounwind uwtable
define internal i32 @aes_wrap_cipher(ptr noundef %0, ptr noundef %1, ptr noundef %2, i64 noundef %3) #0 {
  %5 = alloca i32, align 4
  %6 = alloca ptr, align 8
  %7 = alloca ptr, align 8
  %8 = alloca ptr, align 8
  %9 = alloca i64, align 8
  %10 = alloca ptr, align 8
  %11 = alloca i64, align 8
  %12 = alloca i32, align 4
  %13 = alloca i32, align 4
  store ptr %0, ptr %6, align 8, !tbaa !7
  store ptr %1, ptr %7, align 8, !tbaa !10
  store ptr %2, ptr %8, align 8, !tbaa !10
  store i64 %3, ptr %9, align 8, !tbaa !16
  call void @llvm.lifetime.start.p0(i64 8, ptr %10) #4
  %14 = load ptr, ptr %6, align 8, !tbaa !7
  %15 = call ptr @EVP_CIPHER_CTX_get_cipher_data(ptr noundef %14)
  store ptr %15, ptr %10, align 8, !tbaa !12
  call void @llvm.lifetime.start.p0(i64 8, ptr %11) #4
  call void @llvm.lifetime.start.p0(i64 4, ptr %12) #4
  %16 = load ptr, ptr %6, align 8, !tbaa !7
  %17 = call i32 @EVP_CIPHER_CTX_get_iv_length(ptr noundef %16)
  %18 = icmp eq i32 %17, 4
  %19 = zext i1 %18 to i32
  store i32 %19, ptr %12, align 4, !tbaa !3
  %20 = load ptr, ptr %8, align 8, !tbaa !10
  %21 = icmp ne ptr %20, null
  br i1 %21, label %23, label %22

22:                                               ; preds = %4
  store i32 0, ptr %5, align 4
  store i32 1, ptr %13, align 4
  br label %140

23:                                               ; preds = %4
  %24 = load i64, ptr %9, align 8, !tbaa !16
  %25 = icmp ne i64 %24, 0
  br i1 %25, label %27, label %26

26:                                               ; preds = %23
  store i32 -1, ptr %5, align 4
  store i32 1, ptr %13, align 4
  br label %140

27:                                               ; preds = %23
  %28 = load ptr, ptr %6, align 8, !tbaa !7
  %29 = call i32 @EVP_CIPHER_CTX_is_encrypting(ptr noundef %28)
  %30 = icmp ne i32 %29, 0
  br i1 %30, label %39, label %31

31:                                               ; preds = %27
  %32 = load i64, ptr %9, align 8, !tbaa !16
  %33 = icmp ult i64 %32, 16
  br i1 %33, label %38, label %34

34:                                               ; preds = %31
  %35 = load i64, ptr %9, align 8, !tbaa !16
  %36 = and i64 %35, 7
  %37 = icmp ne i64 %36, 0
  br i1 %37, label %38, label %39

38:                                               ; preds = %34, %31
  store i32 -1, ptr %5, align 4
  store i32 1, ptr %13, align 4
  br label %140

39:                                               ; preds = %34, %27
  %40 = load i32, ptr %12, align 4, !tbaa !3
  %41 = icmp ne i32 %40, 0
  br i1 %41, label %47, label %42

42:                                               ; preds = %39
  %43 = load i64, ptr %9, align 8, !tbaa !16
  %44 = and i64 %43, 7
  %45 = icmp ne i64 %44, 0
  br i1 %45, label %46, label %47

46:                                               ; preds = %42
  store i32 -1, ptr %5, align 4
  store i32 1, ptr %13, align 4
  br label %140

47:                                               ; preds = %42, %39
  %48 = load ptr, ptr %7, align 8, !tbaa !10
  %49 = load ptr, ptr %8, align 8, !tbaa !10
  %50 = load i64, ptr %9, align 8, !tbaa !16
  %51 = trunc i64 %50 to i32
  %52 = call i32 @ossl_is_partially_overlapping(ptr noundef %48, ptr noundef %49, i32 noundef %51)
  %53 = icmp ne i32 %52, 0
  br i1 %53, label %54, label %55

54:                                               ; preds = %47
  call void @ERR_new()
  call void @ERR_set_debug(ptr noundef @.str, i32 noundef 3719, ptr noundef @__func__.aes_wrap_cipher)
  call void (i32, i32, ptr, ...) @ERR_set_error(i32 noundef 6, i32 noundef 162, ptr noundef null)
  store i32 0, ptr %5, align 4
  store i32 1, ptr %13, align 4
  br label %140

55:                                               ; preds = %47
  %56 = load ptr, ptr %7, align 8, !tbaa !10
  %57 = icmp ne ptr %56, null
  br i1 %57, label %78, label %58

58:                                               ; preds = %55
  %59 = load ptr, ptr %6, align 8, !tbaa !7
  %60 = call i32 @EVP_CIPHER_CTX_is_encrypting(ptr noundef %59)
  %61 = icmp ne i32 %60, 0
  br i1 %61, label %62, label %74

62:                                               ; preds = %58
  %63 = load i32, ptr %12, align 4, !tbaa !3
  %64 = icmp ne i32 %63, 0
  br i1 %64, label %65, label %70

65:                                               ; preds = %62
  %66 = load i64, ptr %9, align 8, !tbaa !16
  %67 = add i64 %66, 7
  %68 = udiv i64 %67, 8
  %69 = mul i64 %68, 8
  store i64 %69, ptr %9, align 8, !tbaa !16
  br label %70

70:                                               ; preds = %65, %62
  %71 = load i64, ptr %9, align 8, !tbaa !16
  %72 = add i64 %71, 8
  %73 = trunc i64 %72 to i32
  store i32 %73, ptr %5, align 4
  store i32 1, ptr %13, align 4
  br label %140

74:                                               ; preds = %58
  %75 = load i64, ptr %9, align 8, !tbaa !16
  %76 = sub i64 %75, 8
  %77 = trunc i64 %76 to i32
  store i32 %77, ptr %5, align 4
  store i32 1, ptr %13, align 4
  br label %140

78:                                               ; preds = %55
  %79 = load i32, ptr %12, align 4, !tbaa !3
  %80 = icmp ne i32 %79, 0
  br i1 %80, label %81, label %106

81:                                               ; preds = %78
  %82 = load ptr, ptr %6, align 8, !tbaa !7
  %83 = call i32 @EVP_CIPHER_CTX_is_encrypting(ptr noundef %82)
  %84 = icmp ne i32 %83, 0
  br i1 %84, label %85, label %95

85:                                               ; preds = %81
  %86 = load ptr, ptr %10, align 8, !tbaa !12
  %87 = getelementptr inbounds nuw %struct.EVP_AES_WRAP_CTX, ptr %86, i32 0, i32 0
  %88 = load ptr, ptr %10, align 8, !tbaa !12
  %89 = getelementptr inbounds nuw %struct.EVP_AES_WRAP_CTX, ptr %88, i32 0, i32 1
  %90 = load ptr, ptr %89, align 8, !tbaa !65
  %91 = load ptr, ptr %7, align 8, !tbaa !10
  %92 = load ptr, ptr %8, align 8, !tbaa !10
  %93 = load i64, ptr %9, align 8, !tbaa !16
  %94 = call i64 @CRYPTO_128_wrap_pad(ptr noundef %87, ptr noundef %90, ptr noundef %91, ptr noundef %92, i64 noundef %93, ptr noundef @AES_encrypt)
  store i64 %94, ptr %11, align 8, !tbaa !16
  br label %105

95:                                               ; preds = %81
  %96 = load ptr, ptr %10, align 8, !tbaa !12
  %97 = getelementptr inbounds nuw %struct.EVP_AES_WRAP_CTX, ptr %96, i32 0, i32 0
  %98 = load ptr, ptr %10, align 8, !tbaa !12
  %99 = getelementptr inbounds nuw %struct.EVP_AES_WRAP_CTX, ptr %98, i32 0, i32 1
  %100 = load ptr, ptr %99, align 8, !tbaa !65
  %101 = load ptr, ptr %7, align 8, !tbaa !10
  %102 = load ptr, ptr %8, align 8, !tbaa !10
  %103 = load i64, ptr %9, align 8, !tbaa !16
  %104 = call i64 @CRYPTO_128_unwrap_pad(ptr noundef %97, ptr noundef %100, ptr noundef %101, ptr noundef %102, i64 noundef %103, ptr noundef @AES_decrypt)
  store i64 %104, ptr %11, align 8, !tbaa !16
  br label %105

105:                                              ; preds = %95, %85
  br label %131

106:                                              ; preds = %78
  %107 = load ptr, ptr %6, align 8, !tbaa !7
  %108 = call i32 @EVP_CIPHER_CTX_is_encrypting(ptr noundef %107)
  %109 = icmp ne i32 %108, 0
  br i1 %109, label %110, label %120

110:                                              ; preds = %106
  %111 = load ptr, ptr %10, align 8, !tbaa !12
  %112 = getelementptr inbounds nuw %struct.EVP_AES_WRAP_CTX, ptr %111, i32 0, i32 0
  %113 = load ptr, ptr %10, align 8, !tbaa !12
  %114 = getelementptr inbounds nuw %struct.EVP_AES_WRAP_CTX, ptr %113, i32 0, i32 1
  %115 = load ptr, ptr %114, align 8, !tbaa !65
  %116 = load ptr, ptr %7, align 8, !tbaa !10
  %117 = load ptr, ptr %8, align 8, !tbaa !10
  %118 = load i64, ptr %9, align 8, !tbaa !16
  %119 = call i64 @CRYPTO_128_wrap(ptr noundef %112, ptr noundef %115, ptr noundef %116, ptr noundef %117, i64 noundef %118, ptr noundef @AES_encrypt)
  store i64 %119, ptr %11, align 8, !tbaa !16
  br label %130

120:                                              ; preds = %106
  %121 = load ptr, ptr %10, align 8, !tbaa !12
  %122 = getelementptr inbounds nuw %struct.EVP_AES_WRAP_CTX, ptr %121, i32 0, i32 0
  %123 = load ptr, ptr %10, align 8, !tbaa !12
  %124 = getelementptr inbounds nuw %struct.EVP_AES_WRAP_CTX, ptr %123, i32 0, i32 1
  %125 = load ptr, ptr %124, align 8, !tbaa !65
  %126 = load ptr, ptr %7, align 8, !tbaa !10
  %127 = load ptr, ptr %8, align 8, !tbaa !10
  %128 = load i64, ptr %9, align 8, !tbaa !16
  %129 = call i64 @CRYPTO_128_unwrap(ptr noundef %122, ptr noundef %125, ptr noundef %126, ptr noundef %127, i64 noundef %128, ptr noundef @AES_decrypt)
  store i64 %129, ptr %11, align 8, !tbaa !16
  br label %130

130:                                              ; preds = %120, %110
  br label %131

131:                                              ; preds = %130, %105
  %132 = load i64, ptr %11, align 8, !tbaa !16
  %133 = icmp ne i64 %132, 0
  br i1 %133, label %134, label %137

134:                                              ; preds = %131
  %135 = load i64, ptr %11, align 8, !tbaa !16
  %136 = trunc i64 %135 to i32
  br label %138

137:                                              ; preds = %131
  br label %138

138:                                              ; preds = %137, %134
  %139 = phi i32 [ %136, %134 ], [ -1, %137 ]
  store i32 %139, ptr %5, align 4
  store i32 1, ptr %13, align 4
  br label %140

140:                                              ; preds = %138, %74, %70, %54, %46, %38, %26, %22
  call void @llvm.lifetime.end.p0(i64 4, ptr %12) #4
  call void @llvm.lifetime.end.p0(i64 8, ptr %11) #4
  call void @llvm.lifetime.end.p0(i64 8, ptr %10) #4
  %141 = load i32, ptr %5, align 4
  ret i32 %141
}