; Function Attrs: nounwind uwtable
define internal i32 @aes_wrap_cipher(ptr noundef %0, ptr noundef %1, ptr noundef %2, i64 noundef %3) #2 {
  %5 = tail call ptr @EVP_CIPHER_CTX_get_cipher_data(ptr noundef %0) #8
  %6 = tail call i32 @EVP_CIPHER_CTX_get_iv_length(ptr noundef %0) #8
  %7 = icmp eq i32 %6, 4
  %.not = icmp eq ptr %2, null
  br i1 %.not, label %45, label %8

8:                                                ; preds = %4
  %.not48 = icmp eq i64 %3, 0
  br i1 %.not48, label %45, label %9

9:                                                ; preds = %8
  %10 = tail call i32 @EVP_CIPHER_CTX_is_encrypting(ptr noundef %0) #8
  %.not49 = icmp eq i32 %10, 0
  br i1 %.not49, label %11, label %14

11:                                               ; preds = %9
  %12 = icmp ugt i64 %3, 15
  %13 = and i64 %3, 7
  %.not50 = icmp eq i64 %13, 0
  %or.cond = and i1 %12, %.not50
  br i1 %or.cond, label %.thread, label %45

14:                                               ; preds = %9
  %.pre = and i64 %3, 7
  %15 = icmp eq i64 %.pre, 0
  %or.cond58 = or i1 %15, %7
  br i1 %or.cond58, label %.thread, label %45

.thread:                                          ; preds = %11, %14
  %16 = trunc i64 %3 to i32
  %17 = tail call i32 @ossl_is_partially_overlapping(ptr noundef %1, ptr noundef nonnull %2, i32 noundef %16) #8
  %.not52 = icmp eq i32 %17, 0
  br i1 %.not52, label %19, label %18

18:                                               ; preds = %.thread
  tail call void @ERR_new() #8
  tail call void @ERR_set_debug(ptr noundef nonnull @.str, i32 noundef 3719, ptr noundef nonnull @__func__.aes_wrap_cipher) #8
  tail call void (i32, i32, ptr, ...) @ERR_set_error(i32 noundef 6, i32 noundef 162, ptr noundef null) #8
  br label %45

19:                                               ; preds = %.thread
  %.not53 = icmp eq ptr %1, null
  %20 = tail call i32 @EVP_CIPHER_CTX_is_encrypting(ptr noundef %0) #8
  %.not54 = icmp eq i32 %20, 0
  br i1 %.not53, label %21, label %29

21:                                               ; preds = %19
  br i1 %.not54, label %27, label %22

22:                                               ; preds = %21
  %23 = add i64 %3, 7
  %24 = and i64 %23, 4294967288
  %.044 = select i1 %7, i64 %24, i64 %3
  %25 = trunc i64 %.044 to i32
  %26 = add i32 %25, 8
  br label %45

27:                                               ; preds = %21
  %28 = add i32 %16, -8
  br label %45

29:                                               ; preds = %19
  %30 = getelementptr inbounds nuw i8, ptr %5, i64 248
  %31 = load ptr, ptr %30, align 8, !tbaa !56
  br i1 %7, label %32, label %37

32:                                               ; preds = %29
  br i1 %.not54, label %35, label %33

33:                                               ; preds = %32
  %34 = tail call i64 @CRYPTO_128_wrap_pad(ptr noundef %5, ptr noundef %31, ptr noundef nonnull %1, ptr noundef nonnull %2, i64 noundef %3, ptr noundef nonnull @AES_encrypt) #8
  br label %42

35:                                               ; preds = %32
  %36 = tail call i64 @CRYPTO_128_unwrap_pad(ptr noundef %5, ptr noundef %31, ptr noundef nonnull %1, ptr noundef nonnull %2, i64 noundef %3, ptr noundef nonnull @AES_decrypt) #8
  br label %42

37:                                               ; preds = %29
  br i1 %.not54, label %40, label %38

38:                                               ; preds = %37
  %39 = tail call i64 @CRYPTO_128_wrap(ptr noundef %5, ptr noundef %31, ptr noundef nonnull %1, ptr noundef nonnull %2, i64 noundef %3, ptr noundef nonnull @AES_encrypt) #8
  br label %42

40:                                               ; preds = %37
  %41 = tail call i64 @CRYPTO_128_unwrap(ptr noundef %5, ptr noundef %31, ptr noundef nonnull %1, ptr noundef nonnull %2, i64 noundef %3, ptr noundef nonnull @AES_decrypt) #8
  br label %42

42:                                               ; preds = %38, %40, %33, %35
  %.043 = phi i64 [ %34, %33 ], [ %36, %35 ], [ %39, %38 ], [ %41, %40 ]
  %.not57 = icmp eq i64 %.043, 0
  %43 = trunc i64 %.043 to i32
  %44 = select i1 %.not57, i32 -1, i32 %43
  br label %45

45:                                               ; preds = %14, %11, %8, %4, %42, %27, %22, %18
  %.0 = phi i32 [ 0, %18 ], [ %44, %42 ], [ %26, %22 ], [ %28, %27 ], [ 0, %4 ], [ -1, %8 ], [ -1, %11 ], [ -1, %14 ]
  ret i32 %.0
}